; Function Attrs: nounwind uwtable
define internal fastcc ptr @llvm_debug_pointer_type(ptr nocapture noundef readonly %0, ptr noundef %1) unnamed_addr #0 {
  %3 = getelementptr inbounds i8, ptr %1, i64 56
  %4 = load ptr, ptr %3, align 8
  %5 = getelementptr inbounds i8, ptr %0, i64 328
  %6 = load ptr, ptr %5, align 8
  %7 = tail call fastcc ptr @llvm_get_debug_type_internal(ptr noundef %0, ptr noundef %4, ptr noundef %6)
  %8 = getelementptr inbounds i8, ptr %1, i64 48
  %9 = load ptr, ptr %8, align 8
  %.not = icmp eq ptr %9, null
  br i1 %.not, label %10, label %22

10:                                               ; preds = %2
  %11 = getelementptr inbounds i8, ptr %0, i64 304
  %12 = load ptr, ptr %11, align 8
  %13 = tail call i32 @type_size(ptr noundef nonnull %1) #8
  %14 = shl i32 %13, 3
  %15 = zext i32 %14 to i64
  %16 = tail call i32 @type_abi_alignment(ptr noundef nonnull %1) #8
  %17 = shl i32 %16, 3
  %18 = getelementptr inbounds i8, ptr %1, i64 16
  %19 = load ptr, ptr %18, align 8
  %20 = tail call i64 @strlen(ptr noundef nonnull dereferenceable(1) %19) #9
  %21 = tail call ptr @LLVMDIBuilderCreatePointerType(ptr noundef %12, ptr noundef %7, i64 noundef %15, i32 noundef %17, i32 noundef 0, ptr noundef %19, i64 noundef %20) #8
  br label %22

22:                                               ; preds = %2, %10
  %.0 = phi ptr [ %21, %10 ], [ %9, %2 ]
  ret ptr %.0
}